target datalayout = "e-m:e-p270:32:32-p271:32:32-p272:64:64-i64:64-i128:128-f80:128-n8:16:32:64-S128"
target triple = "x86_64-pc-linux-gnu"

@.str.22 = private unnamed_addr constant [2 x i8] c"\0A\00", align 1
@.str.23 = private unnamed_addr constant [25 x i8] c"KINGetNumNonlinSolvIters\00", align 1
@.str.24 = private unnamed_addr constant [19 x i8] c"KINGetNumFuncEvals\00", align 1
@.str.25 = private unnamed_addr constant [18 x i8] c"KINGetNumJacEvals\00", align 1
@.str.26 = private unnamed_addr constant [22 x i8] c"KINGetNumLinFuncEvals\00", align 1
@.str.27 = private unnamed_addr constant [19 x i8] c"KINGetLinWorkSpace\00", align 1
@.str.28 = private unnamed_addr constant [23 x i8] c"\0AFinal Statistics.. \0A\0A\00", align 1
@.str.29 = private unnamed_addr constant [36 x i8] c"nni      = %6ld    nfe     = %6ld \0A\00", align 1
@.str.30 = private unnamed_addr constant [36 x i8] c"nje      = %6ld    nfeB    = %6ld \0A\00", align 1
@.str.31 = private unnamed_addr constant [36 x i8] c"lenrwB   = %6ld    leniwB  = %6ld \0A\00", align 1
@stderr = external global ptr, align 8
@.str.32 = private unnamed_addr constant [55 x i8] c"\0ASUNDIALS_ERROR: %s() failed - returned NULL pointer\0A\0A\00", align 1
@.str.33 = private unnamed_addr constant [48 x i8] c"\0ASUNDIALS_ERROR: %s() failed with retval = %d\0A\0A\00", align 1
@.str.34 = private unnamed_addr constant [53 x i8] c"\0AMEMORY_ERROR: %s() failed - returned NULL pointer\0A\0A\00", align 1

; Function Attrs: nounwind uwtable
define internal i32 @check_retval(ptr noundef %0, ptr noundef %1, i32 noundef %2) #0 {
  %4 = alloca i32, align 4
  %5 = alloca ptr, align 8
  %6 = alloca ptr, align 8
  %7 = alloca i32, align 4
  %8 = alloca ptr, align 8
  %9 = alloca i32, align 4
  store ptr %0, ptr %5, align 8, !tbaa !9
  store ptr %1, ptr %6, align 8, !tbaa !20
  store i32 %2, ptr %7, align 4, !tbaa !14
  call void @llvm.lifetime.start.p0(i64 8, ptr %8) #5
  %10 = load i32, ptr %7, align 4, !tbaa !14
  %11 = icmp eq i32 %10, 0
  br i1 %11, label %12, label %19

12:                                               ; preds = %3
  %13 = load ptr, ptr %5, align 8, !tbaa !9
  %14 = icmp eq ptr %13, null
  br i1 %14, label %15, label %19

15:                                               ; preds = %12
  %16 = load ptr, ptr @stderr, align 8, !tbaa !22
  %17 = load ptr, ptr %6, align 8, !tbaa !20
  %18 = call i32 (ptr, ptr, ...) @fprintf(ptr noundef %16, ptr noundef @.str.32, ptr noundef %17) #5
  store i32 1, ptr %4, align 4
  store i32 1, ptr %9, align 4
  br label %47

19:                                               ; preds = %12, %3
  %20 = load i32, ptr %7, align 4, !tbaa !14
  %21 = icmp eq i32 %20, 1
  br i1 %21, label %22, label %34

22:                                               ; preds = %19
  %23 = load ptr, ptr %5, align 8, !tbaa !9
  store ptr %23, ptr %8, align 8, !tbaa !24
  %24 = load ptr, ptr %8, align 8, !tbaa !24
  %25 = load i32, ptr %24, align 4, !tbaa !14
  %26 = icmp slt i32 %25, 0
  br i1 %26, label %27, label %33

27:                                               ; preds = %22
  %28 = load ptr, ptr @stderr, align 8, !tbaa !22
  %29 = load ptr, ptr %6, align 8, !tbaa !20
  %30 = load ptr, ptr %8, align 8, !tbaa !24
  %31 = load i32, ptr %30, align 4, !tbaa !14
  %32 = call i32 (ptr, ptr, ...) @fprintf(ptr noundef %28, ptr noundef @.str.33, ptr noundef %29, i32 noundef %31) #5
  store i32 1, ptr %4, align 4
  store i32 1, ptr %9, align 4
  br label %47

33:                                               ; preds = %22
  br label %45

34:                                               ; preds = %19
  %35 = load i32, ptr %7, align 4, !tbaa !14
  %36 = icmp eq i32 %35, 2
  br i1 %36, label %37, label %44

37:                                               ; preds = %34
  %38 = load ptr, ptr %5, align 8, !tbaa !9
  %39 = icmp eq ptr %38, null
  br i1 %39, label %40, label %44

40:                                               ; preds = %37
  %41 = load ptr, ptr @stderr, align 8, !tbaa !22
  %42 = load ptr, ptr %6, align 8, !tbaa !20
  %43 = call i32 (ptr, ptr, ...) @fprintf(ptr noundef %41, ptr noundef @.str.34, ptr noundef %42) #5
  store i32 1, ptr %4, align 4
  store i32 1, ptr %9, align 4
  br label %47

44:                                               ; preds = %37, %34
  br label %45

45:                                               ; preds = %44, %33
  br label %46

46:                                               ; preds = %45
  store i32 0, ptr %4, align 4
  store i32 1, ptr %9, align 4
  br label %47

47:                                               ; preds = %46, %40, %27, %15
  call void @llvm.lifetime.end.p0(i64 8, ptr %8) #5
  %48 = load i32, ptr %4, align 4
  ret i32 %48
}

; Function Attrs: nounwind uwtable
define internal void @PrintFinalStats(ptr noundef %0) #0 {
  %2 = alloca ptr, align 8
  %3 = alloca i64, align 8
  %4 = alloca i64, align 8
  %5 = alloca i64, align 8
  %6 = alloca i64, align 8
  %7 = alloca i64, align 8
  %8 = alloca i64, align 8
  %9 = alloca i32, align 4
  store ptr %0, ptr %2, align 8, !tbaa !9
  call void @llvm.lifetime.start.p0(i64 8, ptr %3) #5
  call void @llvm.lifetime.start.p0(i64 8, ptr %4) #5
  call void @llvm.lifetime.start.p0(i64 8, ptr %5) #5
  call void @llvm.lifetime.start.p0(i64 8, ptr %6) #5
  call void @llvm.lifetime.start.p0(i64 8, ptr %7) #5
  call void @llvm.lifetime.start.p0(i64 8, ptr %8) #5
  call void @llvm.lifetime.start.p0(i64 4, ptr %9) #5
  %10 = load ptr, ptr %2, align 8, !tbaa !9
  %11 = call i32 @KINGetNumNonlinSolvIters(ptr noundef %10, ptr noundef %3)
  store i32 %11, ptr %9, align 4, !tbaa !14
  %12 = call i32 @check_retval(ptr noundef %9, ptr noundef @.str.23, i32 noundef 1)
  %13 = load ptr, ptr %2, align 8, !tbaa !9
  %14 = call i32 @KINGetNumFuncEvals(ptr noundef %13, ptr noundef %4)
  store i32 %14, ptr %9, align 4, !tbaa !14
  %15 = call i32 @check_retval(ptr noundef %9, ptr noundef @.str.24, i32 noundef 1)
  %16 = load ptr, ptr %2, align 8, !tbaa !9
  %17 = call i32 @KINGetNumJacEvals(ptr noundef %16, ptr noundef %5)
  store i32 %17, ptr %9, align 4, !tbaa !14
  %18 = call i32 @check_retval(ptr noundef %9, ptr noundef @.str.25, i32 noundef 1)
  %19 = load ptr, ptr %2, align 8, !tbaa !9
  %20 = call i32 @KINGetNumLinFuncEvals(ptr noundef %19, ptr noundef %6)
  store i32 %20, ptr %9, align 4, !tbaa !14
  %21 = call i32 @check_retval(ptr noundef %9, ptr noundef @.str.26, i32 noundef 1)
  %22 = load ptr, ptr %2, align 8, !tbaa !9
  %23 = call i32 @KINGetLinWorkSpace(ptr noundef %22, ptr noundef %7, ptr noundef %8)
  store i32 %23, ptr %9, align 4, !tbaa !14
  %24 = call i32 @check_retval(ptr noundef %9, ptr noundef @.str.27, i32 noundef 1)
  %25 = call i32 (ptr, ...) @printf(ptr noundef @.str.28)
  %26 = load i64, ptr %3, align 8, !tbaa !28
  %27 = load i64, ptr %4, align 8, !tbaa !28
  %28 = call i32 (ptr, ...) @printf(ptr noundef @.str.29, i64 noundef %26, i64 noundef %27)
  %29 = load i64, ptr %5, align 8, !tbaa !28
  %30 = load i64, ptr %6, align 8, !tbaa !28
  %31 = call i32 (ptr, ...) @printf(ptr noundef @.str.30, i64 noundef %29, i64 noundef %30)
  %32 = call i32 (ptr, ...) @printf(ptr noundef @.str.22)
  %33 = load i64, ptr %7, align 8, !tbaa !28
  %34 = load i64, ptr %8, align 8, !tbaa !28
  %35 = call i32 (ptr, ...) @printf(ptr noundef @.str.31, i64 noundef %33, i64 noundef %34)
  call void @llvm.lifetime.end.p0(i64 4, ptr %9) #5
  call void @llvm.lifetime.end.p0(i64 8, ptr %8) #5
  call void @llvm.lifetime.end.p0(i64 8, ptr %7) #5
  call void @llvm.lifetime.end.p0(i64 8, ptr %6) #5
  call void @llvm.lifetime.end.p0(i64 8, ptr %5) #5
  call void @llvm.lifetime.end.p0(i64 8, ptr %4) #5
  call void @llvm.lifetime.end.p0(i64 8, ptr %3) #5
  ret void
}