; Function Attrs: nounwind uwtable
define internal fastcc void @PrintFinalStats(ptr noundef %0) unnamed_addr #0 {
  %2 = alloca i64, align 8
  %3 = alloca i64, align 8
  %4 = alloca i64, align 8
  %5 = alloca i64, align 8
  %6 = alloca i64, align 8
  %7 = alloca i64, align 8
  call void @llvm.lifetime.start.p0(i64 8, ptr nonnull %2) #6
  call void @llvm.lifetime.start.p0(i64 8, ptr nonnull %3) #6
  call void @llvm.lifetime.start.p0(i64 8, ptr nonnull %4) #6
  call void @llvm.lifetime.start.p0(i64 8, ptr nonnull %5) #6
  call void @llvm.lifetime.start.p0(i64 8, ptr nonnull %6) #6
  call void @llvm.lifetime.start.p0(i64 8, ptr nonnull %7) #6
  %8 = call i32 @KINGetNumNonlinSolvIters(ptr noundef %0, ptr noundef nonnull %2) #6
  %9 = icmp slt i32 %8, 0
  br i1 %9, label %10, label %check_retval.exit

10:                                               ; preds = %1
  %11 = load ptr, ptr @stderr, align 8, !tbaa !4
  %12 = call i32 (ptr, ptr, ...) @fprintf(ptr noundef %11, ptr noundef nonnull @.str.33, ptr noundef nonnull @.str.23, i32 noundef %8) #7
  br label %check_retval.exit

check_retval.exit:                                ; preds = %1, %10
  %13 = call i32 @KINGetNumFuncEvals(ptr noundef %0, ptr noundef nonnull %3) #6
  %14 = icmp slt i32 %13, 0
  br i1 %14, label %15, label %check_retval.exit6

15:                                               ; preds = %check_retval.exit
  %16 = load ptr, ptr @stderr, align 8, !tbaa !4
  %17 = call i32 (ptr, ptr, ...) @fprintf(ptr noundef %16, ptr noundef nonnull @.str.33, ptr noundef nonnull @.str.24, i32 noundef %13) #7
  br label %check_retval.exit6

check_retval.exit6:                               ; preds = %check_retval.exit, %15
  %18 = call i32 @KINGetNumJacEvals(ptr noundef %0, ptr noundef nonnull %4) #6
  %19 = icmp slt i32 %18, 0
  br i1 %19, label %20, label %check_retval.exit8

20:                                               ; preds = %check_retval.exit6
  %21 = load ptr, ptr @stderr, align 8, !tbaa !4
  %22 = call i32 (ptr, ptr, ...) @fprintf(ptr noundef %21, ptr noundef nonnull @.str.33, ptr noundef nonnull @.str.25, i32 noundef %18) #7
  br label %check_retval.exit8

check_retval.exit8:                               ; preds = %check_retval.exit6, %20
  %23 = call i32 @KINGetNumLinFuncEvals(ptr noundef %0, ptr noundef nonnull %5) #6
  %24 = icmp slt i32 %23, 0
  br i1 %24, label %25, label %check_retval.exit10

25:                                               ; preds = %check_retval.exit8
  %26 = load ptr, ptr @stderr, align 8, !tbaa !4
  %27 = call i32 (ptr, ptr, ...) @fprintf(ptr noundef %26, ptr noundef nonnull @.str.33, ptr noundef nonnull @.str.26, i32 noundef %23) #7
  br label %check_retval.exit10

check_retval.exit10:                              ; preds = %check_retval.exit8, %25
  %28 = call i32 @KINGetLinWorkSpace(ptr noundef %0, ptr noundef nonnull %6, ptr noundef nonnull %7) #6
  %29 = icmp slt i32 %28, 0
  br i1 %29, label %30, label %check_retval.exit12

30:                                               ; preds = %check_retval.exit10
  %31 = load ptr, ptr @stderr, align 8, !tbaa !4
  %32 = call i32 (ptr, ptr, ...) @fprintf(ptr noundef %31, ptr noundef nonnull @.str.33, ptr noundef nonnull @.str.27, i32 noundef %28) #7
  br label %check_retval.exit12

check_retval.exit12:                              ; preds = %check_retval.exit10, %30
  %puts = call i32 @puts(ptr nonnull dereferenceable(1) @str.5)
  %33 = load i64, ptr %2, align 8, !tbaa !14
  %34 = load i64, ptr %3, align 8, !tbaa !14
  %35 = call i32 (ptr, ...) @printf(ptr noundef nonnull dereferenceable(1) @.str.29, i64 noundef %33, i64 noundef %34)
  %36 = load i64, ptr %4, align 8, !tbaa !14
  %37 = load i64, ptr %5, align 8, !tbaa !14
  %38 = call i32 (ptr, ...) @printf(ptr noundef nonnull dereferenceable(1) @.str.30, i64 noundef %36, i64 noundef %37)
  %putchar = call i32 @putchar(i32 10)
  %39 = load i64, ptr %6, align 8, !tbaa !14
  %40 = load i64, ptr %7, align 8, !tbaa !14
  %41 = call i32 (ptr, ...) @printf(ptr noundef nonnull dereferenceable(1) @.str.31, i64 noundef %39, i64 noundef %40)
  call void @llvm.lifetime.end.p0(i64 8, ptr nonnull %7) #6
  call void @llvm.lifetime.end.p0(i64 8, ptr nonnull %6) #6
  call void @llvm.lifetime.end.p0(i64 8, ptr nonnull %5) #6
  call void @llvm.lifetime.end.p0(i64 8, ptr nonnull %4) #6
  call void @llvm.lifetime.end.p0(i64 8, ptr nonnull %3) #6
  call void @llvm.lifetime.end.p0(i64 8, ptr nonnull %2) #6
  ret void
}